target datalayout = "e-m:e-p270:32:32-p271:32:32-p272:64:64-i64:64-i128:128-f80:128-n8:16:32:64-S128"
target triple = "x86_64-pc-linux-gnu"

%struct.Vec_Ptr_t_ = type { i32, i32, ptr }
%struct.Cba_Ntk_t_ = type { ptr, i32, i32, i32, i8, %struct.Vec_Int_t_, %struct.Vec_Int_t_, %struct.Vec_Int_t_, %struct.Vec_Int_t_, %struct.Vec_Str_t_, %struct.Vec_Int_t_, %struct.Vec_Int_t_, %struct.Vec_Int_t_, %struct.Vec_Int_t_, %struct.Vec_Int_t_, %struct.Vec_Int_t_, %struct.Vec_Int_t_, %struct.Vec_Int_t_, %struct.Vec_Int_t_, %struct.Vec_Int_t_, %struct.Vec_Int_t_, %struct.Vec_Int_t_, %struct.Vec_Int_t_, %struct.Vec_Int_t_, %struct.Vec_Int_t_, %struct.Vec_Int_t_, %struct.Vec_Int_t_, %struct.Vec_Int_t_, ptr, %struct.Vec_Int_t_, %struct.Vec_Int_t_ }
%struct.Vec_Str_t_ = type { i32, i32, ptr }
%struct.Vec_Int_t_ = type { i32, i32, ptr }
%struct.Cba_Man_t_ = type { ptr, ptr, ptr, ptr, ptr, ptr, %struct.Vec_Int_t_, %struct.Vec_Int_t_, %struct.Vec_Int_t_, %struct.Vec_Int_t_, [90 x ptr], [90 x i32], [90 x i32], i32, %struct.Vec_Ptr_t_, i32, %struct.Vec_Str_t_, %struct.Vec_Str_t_, ptr }
%struct.__va_list_tag = type { i32, i32, ptr, ptr }

; Function Attrs: nounwind uwtable
define internal ptr @Vec_StrLimit(ptr noundef %0) #0 {
  %2 = alloca ptr, align 8
  store ptr %0, ptr %2, align 8
  %3 = load ptr, ptr %2, align 8
  %4 = getelementptr inbounds %struct.Vec_Str_t_, ptr %3, i32 0, i32 2
  %5 = load ptr, ptr %4, align 8
  %6 = load ptr, ptr %2, align 8
  %7 = getelementptr inbounds %struct.Vec_Str_t_, ptr %6, i32 0, i32 1
  %8 = load i32, ptr %7, align 4
  %9 = sext i32 %8 to i64
  %10 = getelementptr inbounds i8, ptr %5, i64 %9
  ret ptr %10
}

; Function Attrs: nounwind uwtable
define internal void @Vec_StrGrow(ptr noundef %0, i32 noundef %1) #0 {
  %3 = alloca ptr, align 8
  %4 = alloca i32, align 4
  store ptr %0, ptr %3, align 8
  store i32 %1, ptr %4, align 4
  %5 = load ptr, ptr %3, align 8
  %6 = getelementptr inbounds %struct.Vec_Str_t_, ptr %5, i32 0, i32 0
  %7 = load i32, ptr %6, align 8
  %8 = load i32, ptr %4, align 4
  %9 = icmp sge i32 %7, %8
  br i1 %9, label %10, label %11

10:                                               ; preds = %2
  br label %36

11:                                               ; preds = %2
  %12 = load ptr, ptr %3, align 8
  %13 = getelementptr inbounds %struct.Vec_Str_t_, ptr %12, i32 0, i32 2
  %14 = load ptr, ptr %13, align 8
  %15 = icmp ne ptr %14, null
  br i1 %15, label %16, label %24

16:                                               ; preds = %11
  %17 = load ptr, ptr %3, align 8
  %18 = getelementptr inbounds %struct.Vec_Str_t_, ptr %17, i32 0, i32 2
  %19 = load ptr, ptr %18, align 8
  %20 = load i32, ptr %4, align 4
  %21 = sext i32 %20 to i64
  %22 = mul i64 1, %21
  %23 = call ptr @realloc(ptr noundef %19, i64 noundef %22) #15
  br label %29

24:                                               ; preds = %11
  %25 = load i32, ptr %4, align 4
  %26 = sext i32 %25 to i64
  %27 = mul i64 1, %26
  %28 = call noalias ptr @malloc(i64 noundef %27) #12
  br label %29

29:                                               ; preds = %24, %16
  %30 = phi ptr [ %23, %16 ], [ %28, %24 ]
  %31 = load ptr, ptr %3, align 8
  %32 = getelementptr inbounds %struct.Vec_Str_t_, ptr %31, i32 0, i32 2
  store ptr %30, ptr %32, align 8
  %33 = load i32, ptr %4, align 4
  %34 = load ptr, ptr %3, align 8
  %35 = getelementptr inbounds %struct.Vec_Str_t_, ptr %34, i32 0, i32 0
  store i32 %33, ptr %35, align 8
  br label %36

36:                                               ; preds = %29, %10
  ret void
}

; Function Attrs: nounwind uwtable
define internal i32 @Vec_StrSize(ptr noundef %0) #0 {
  %2 = alloca ptr, align 8
  store ptr %0, ptr %2, align 8
  %3 = load ptr, ptr %2, align 8
  %4 = getelementptr inbounds %struct.Vec_Str_t_, ptr %3, i32 0, i32 1
  %5 = load i32, ptr %4, align 4
  ret i32 %5
}

; Function Attrs: nounwind uwtable
define internal ptr @Cba_NtkNam(ptr noundef %0) #0 {
  %2 = alloca ptr, align 8
  store ptr %0, ptr %2, align 8
  %3 = load ptr, ptr %2, align 8
  %4 = getelementptr inbounds %struct.Cba_Ntk_t_, ptr %3, i32 0, i32 0
  %5 = load ptr, ptr %4, align 8
  %6 = getelementptr inbounds %struct.Cba_Man_t_, ptr %5, i32 0, i32 2
  %7 = load ptr, ptr %6, align 8
  ret ptr %7
}

; Function Attrs: nounwind uwtable
define internal i32 @Cba_NtkNewStrId(ptr noundef %0, ptr noundef %1, ...) #0 {
  %3 = alloca ptr, align 8
  %4 = alloca ptr, align 8
  %5 = alloca ptr, align 8
  %6 = alloca ptr, align 8
  %7 = alloca i32, align 4
  %8 = alloca i32, align 4
  %9 = alloca [1 x %struct.__va_list_tag], align 16
  store ptr %0, ptr %3, align 8
  store ptr %1, ptr %4, align 8
  %10 = load ptr, ptr %3, align 8
  %11 = call ptr @Cba_NtkNam(ptr noundef %10)
  store ptr %11, ptr %5, align 8
  %12 = load ptr, ptr %5, align 8
  %13 = call ptr @Abc_NamBuffer(ptr noundef %12)
  store ptr %13, ptr %6, align 8
  store i32 1000, ptr %8, align 4
  %14 = getelementptr inbounds [1 x %struct.__va_list_tag], ptr %9, i64 0, i64 0
  call void @llvm.va_start.p0(ptr %14)
  %15 = load ptr, ptr %6, align 8
  %16 = load ptr, ptr %6, align 8
  %17 = call i32 @Vec_StrSize(ptr noundef %16)
  %18 = load i32, ptr %8, align 4
  %19 = add nsw i32 %17, %18
  call void @Vec_StrGrow(ptr noundef %15, i32 noundef %19)
  %20 = load ptr, ptr %6, align 8
  %21 = call ptr @Vec_StrLimit(ptr noundef %20)
  %22 = load i32, ptr %8, align 4
  %23 = sext i32 %22 to i64
  %24 = load ptr, ptr %4, align 8
  %25 = getelementptr inbounds [1 x %struct.__va_list_tag], ptr %9, i64 0, i64 0
  %26 = call i32 @vsnprintf(ptr noundef %21, i64 noundef %23, ptr noundef %24, ptr noundef %25) #11
  store i32 %26, ptr %7, align 4
  %27 = load i32, ptr %7, align 4
  %28 = load i32, ptr %8, align 4
  %29 = icmp sgt i32 %27, %28
  br i1 %29, label %30, label %45

30:                                               ; preds = %2
  %31 = load ptr, ptr %6, align 8
  %32 = load ptr, ptr %6, align 8
  %33 = call i32 @Vec_StrSize(ptr noundef %32)
  %34 = load i32, ptr %7, align 4
  %35 = add nsw i32 %33, %34
  %36 = load i32, ptr %8, align 4
  %37 = add nsw i32 %35, %36
  call void @Vec_StrGrow(ptr noundef %31, i32 noundef %37)
  %38 = load ptr, ptr %6, align 8
  %39 = call ptr @Vec_StrLimit(ptr noundef %38)
  %40 = load i32, ptr %7, align 4
  %41 = sext i32 %40 to i64
  %42 = load ptr, ptr %4, align 8
  %43 = getelementptr inbounds [1 x %struct.__va_list_tag], ptr %9, i64 0, i64 0
  %44 = call i32 @vsnprintf(ptr noundef %39, i64 noundef %41, ptr noundef %42, ptr noundef %43) #11
  store i32 %44, ptr %8, align 4
  br label %45

45:                                               ; preds = %30, %2
  %46 = getelementptr inbounds [1 x %struct.__va_list_tag], ptr %9, i64 0, i64 0
  call void @llvm.va_end.p0(ptr %46)
  %47 = load ptr, ptr %5, align 8
  %48 = load ptr, ptr %6, align 8
  %49 = call ptr @Vec_StrLimit(ptr noundef %48)
  %50 = load ptr, ptr %6, align 8
  %51 = call ptr @Vec_StrLimit(ptr noundef %50)
  %52 = load i32, ptr %7, align 4
  %53 = sext i32 %52 to i64
  %54 = getelementptr inbounds i8, ptr %51, i64 %53
  %55 = call i32 @Abc_NamStrFindOrAddLim(ptr noundef %47, ptr noundef %49, ptr noundef %54, ptr noundef null)
  ret i32 %55
}